; Function Attrs: nounwind uwtable
define dso_local i64 @gist_point_compress(ptr noundef readonly captures(none) %0) local_unnamed_addr #0 {
  %2 = getelementptr inbounds nuw i8, ptr %0, i64 32
  %3 = load i64, ptr %2, align 8
  %4 = inttoptr i64 %3 to ptr
  %5 = getelementptr inbounds nuw i8, ptr %4, i64 26
  %6 = load i8, ptr %5, align 2, !range !14, !noundef !15
  %7 = trunc nuw i8 %6 to i1
  br i1 %7, label %8, label %26

8:                                                ; preds = %1
  %9 = tail call ptr @palloc(i64 noundef 32) #16
  %10 = load i64, ptr %4, align 8
  %11 = inttoptr i64 %10 to ptr
  %12 = tail call ptr @palloc(i64 noundef 32) #16
  %13 = getelementptr inbounds nuw i8, ptr %9, i64 16
  tail call void @llvm.memcpy.p0.p0.i64(ptr noundef nonnull align 8 dereferenceable(16) %13, ptr noundef nonnull align 8 dereferenceable(16) %11, i64 16, i1 false)
  tail call void @llvm.memmove.p0.p0.i64(ptr noundef nonnull align 8 dereferenceable(16) %9, ptr noundef nonnull align 8 dereferenceable(16) %11, i64 16, i1 false)
  %14 = ptrtoint ptr %9 to i64
  store i64 %14, ptr %12, align 8
  %15 = getelementptr inbounds nuw i8, ptr %4, i64 8
  %16 = load ptr, ptr %15, align 8
  %17 = getelementptr inbounds nuw i8, ptr %12, i64 8
  store ptr %16, ptr %17, align 8
  %18 = getelementptr inbounds nuw i8, ptr %4, i64 16
  %19 = load ptr, ptr %18, align 8
  %20 = getelementptr inbounds nuw i8, ptr %12, i64 16
  store ptr %19, ptr %20, align 8
  %21 = getelementptr inbounds nuw i8, ptr %4, i64 24
  %22 = load i16, ptr %21, align 8
  %23 = getelementptr inbounds nuw i8, ptr %12, i64 24
  store i16 %22, ptr %23, align 8
  %24 = getelementptr inbounds nuw i8, ptr %12, i64 26
  store i8 0, ptr %24, align 2
  %25 = ptrtoint ptr %12 to i64
  br label %26

26:                                               ; preds = %1, %8
  %.0 = phi i64 [ %25, %8 ], [ %3, %1 ]
  ret i64 %.0
}